target datalayout = "e-m:e-p270:32:32-p271:32:32-p272:64:64-i64:64-i128:128-f80:128-n8:16:32:64-S128"
target triple = "x86_64-pc-linux-gnu"

%class.QString = type { %struct.QArrayDataPointer }
%struct.QArrayDataPointer = type { ptr, ptr, i64 }
%class.RtpStreamDialog = type { %class.WiresharkDialog.base, ptr, %struct._rtpstream_tapinfo, ptr, ptr, ptr, ptr, ptr, ptr, %class.QMenu, i8, %class.QList.1 }
%class.WiresharkDialog.base = type <{ %class.GeometryStateDialog, ptr, i8, [7 x i8], %class.QString, %class.QList, i32, i8 }>
%class.GeometryStateDialog = type { %class.QDialog, %class.QString }
%class.QDialog = type { %class.QWidget }
%class.QWidget = type { %class.QObject, %class.QPaintDevice.base, ptr }
%class.QObject = type { ptr, %class.QScopedPointer }
%class.QScopedPointer = type { ptr }
%class.QPaintDevice.base = type <{ ptr, i16 }>
%class.QList = type { %struct.QArrayDataPointer.0 }
%struct.QArrayDataPointer.0 = type { ptr, ptr, i64 }
%struct._rtpstream_tapinfo = type { ptr, ptr, ptr, ptr, i32, ptr, ptr, i32, i32, ptr, ptr, ptr, i32, i32 }
%class.QMenu = type { %class.QWidget }
%class.QList.1 = type { %struct.QArrayDataPointer.4 }
%struct.QArrayDataPointer.4 = type { ptr, ptr, i64 }
%class.Ui_RtpStreamDialog = type { ptr, ptr, ptr, ptr, ptr, ptr, ptr, ptr, ptr, ptr, ptr, ptr, ptr, ptr, ptr, ptr, ptr, ptr, ptr, ptr, ptr, ptr, ptr, ptr, ptr }
%class.WiresharkDialog = type <{ %class.GeometryStateDialog, ptr, i8, [7 x i8], %class.QString, %class.QList, i32, i8, [3 x i8] }>
%class.QPoint = type { i32, i32 }

; Function Attrs: mustprogress uwtable
define void @_ZN15RtpStreamDialog14showStreamMenuE6QPoint(ptr noundef nonnull align 8 dereferenceable(360) %0, i64 %1) #0 align 2 {
  %3 = alloca %class.QPoint, align 4
  %4 = alloca ptr, align 8
  %5 = alloca %class.QPoint, align 4
  store i64 %1, ptr %3, align 4
  store ptr %0, ptr %4, align 8
  %6 = load ptr, ptr %4, align 8
  %7 = getelementptr inbounds %class.RtpStreamDialog, ptr %6, i32 0, i32 1
  %8 = load ptr, ptr %7, align 8
  %9 = getelementptr inbounds %class.Ui_RtpStreamDialog, ptr %8, i32 0, i32 8
  %10 = load ptr, ptr %9, align 8
  %11 = getelementptr inbounds %class.WiresharkDialog, ptr %6, i32 0, i32 2
  %12 = load i8, ptr %11, align 8
  %13 = trunc i8 %12 to i1
  %14 = xor i1 %13, true
  call void @_ZN7QAction10setEnabledEb(ptr noundef nonnull align 8 dereferenceable(16) %10, i1 noundef zeroext %14)
  %15 = getelementptr inbounds %class.RtpStreamDialog, ptr %6, i32 0, i32 1
  %16 = load ptr, ptr %15, align 8
  %17 = getelementptr inbounds %class.Ui_RtpStreamDialog, ptr %16, i32 0, i32 4
  %18 = load ptr, ptr %17, align 8
  %19 = getelementptr inbounds %class.WiresharkDialog, ptr %6, i32 0, i32 2
  %20 = load i8, ptr %19, align 8
  %21 = trunc i8 %20 to i1
  %22 = xor i1 %21, true
  call void @_ZN7QAction10setEnabledEb(ptr noundef nonnull align 8 dereferenceable(16) %18, i1 noundef zeroext %22)
  %23 = getelementptr inbounds %class.RtpStreamDialog, ptr %6, i32 0, i32 1
  %24 = load ptr, ptr %23, align 8
  %25 = getelementptr inbounds %class.Ui_RtpStreamDialog, ptr %24, i32 0, i32 9
  %26 = load ptr, ptr %25, align 8
  %27 = getelementptr inbounds %class.WiresharkDialog, ptr %6, i32 0, i32 2
  %28 = load i8, ptr %27, align 8
  %29 = trunc i8 %28 to i1
  %30 = xor i1 %29, true
  call void @_ZN7QAction10setEnabledEb(ptr noundef nonnull align 8 dereferenceable(16) %26, i1 noundef zeroext %30)
  %31 = getelementptr inbounds %class.RtpStreamDialog, ptr %6, i32 0, i32 1
  %32 = load ptr, ptr %31, align 8
  %33 = getelementptr inbounds %class.Ui_RtpStreamDialog, ptr %32, i32 0, i32 10
  %34 = load ptr, ptr %33, align 8
  %35 = getelementptr inbounds %class.WiresharkDialog, ptr %6, i32 0, i32 2
  %36 = load i8, ptr %35, align 8
  %37 = trunc i8 %36 to i1
  %38 = xor i1 %37, true
  call void @_ZN7QAction10setEnabledEb(ptr noundef nonnull align 8 dereferenceable(16) %34, i1 noundef zeroext %38)
  %39 = getelementptr inbounds %class.RtpStreamDialog, ptr %6, i32 0, i32 1
  %40 = load ptr, ptr %39, align 8
  %41 = getelementptr inbounds %class.Ui_RtpStreamDialog, ptr %40, i32 0, i32 11
  %42 = load ptr, ptr %41, align 8
  %43 = getelementptr inbounds %class.WiresharkDialog, ptr %6, i32 0, i32 2
  %44 = load i8, ptr %43, align 8
  %45 = trunc i8 %44 to i1
  %46 = xor i1 %45, true
  call void @_ZN7QAction10setEnabledEb(ptr noundef nonnull align 8 dereferenceable(16) %42, i1 noundef zeroext %46)
  %47 = getelementptr inbounds %class.RtpStreamDialog, ptr %6, i32 0, i32 9
  %48 = getelementptr inbounds %class.RtpStreamDialog, ptr %6, i32 0, i32 1
  %49 = load ptr, ptr %48, align 8
  %50 = getelementptr inbounds %class.Ui_RtpStreamDialog, ptr %49, i32 0, i32 18
  %51 = load ptr, ptr %50, align 8
  %52 = call noundef ptr @_ZNK19QAbstractScrollArea8viewportEv(ptr noundef nonnull align 8 dereferenceable(40) %51)
  %53 = call i64 @_ZNK7QWidget11mapToGlobalERK6QPoint(ptr noundef nonnull align 8 dereferenceable(40) %52, ptr noundef nonnull align 4 dereferenceable(8) %3)
  store i64 %53, ptr %5, align 4
  call void @_ZN5QMenu5popupERK6QPointP7QAction(ptr noundef nonnull align 8 dereferenceable(40) %47, ptr noundef nonnull align 4 dereferenceable(8) %5, ptr noundef null)
  ret void
}