; Function Attrs: mustprogress uwtable
define void @_ZN15RtpStreamDialog14showStreamMenuE6QPoint(ptr noundef nonnull align 8 dereferenceable(360) %0, i64 %1) local_unnamed_addr #0 align 2 {
  %3 = alloca %class.QPoint, align 8
  %4 = alloca %class.QPoint, align 8
  store i64 %1, ptr %3, align 8
  %5 = getelementptr inbounds i8, ptr %0, i64 136
  %6 = load ptr, ptr %5, align 8
  %7 = getelementptr inbounds i8, ptr %6, i64 64
  %8 = load ptr, ptr %7, align 8
  %9 = getelementptr inbounds i8, ptr %0, i64 72
  %10 = load i8, ptr %9, align 8
  %11 = and i8 %10, 1
  %.not = icmp eq i8 %11, 0
  tail call void @_ZN7QAction10setEnabledEb(ptr noundef nonnull align 8 dereferenceable(16) %8, i1 noundef zeroext %.not)
  %12 = load ptr, ptr %5, align 8
  %13 = getelementptr inbounds i8, ptr %12, i64 32
  %14 = load ptr, ptr %13, align 8
  %15 = load i8, ptr %9, align 8
  %16 = and i8 %15, 1
  %.not1 = icmp eq i8 %16, 0
  tail call void @_ZN7QAction10setEnabledEb(ptr noundef nonnull align 8 dereferenceable(16) %14, i1 noundef zeroext %.not1)
  %17 = load ptr, ptr %5, align 8
  %18 = getelementptr inbounds i8, ptr %17, i64 72
  %19 = load ptr, ptr %18, align 8
  %20 = load i8, ptr %9, align 8
  %21 = and i8 %20, 1
  %.not2 = icmp eq i8 %21, 0
  tail call void @_ZN7QAction10setEnabledEb(ptr noundef nonnull align 8 dereferenceable(16) %19, i1 noundef zeroext %.not2)
  %22 = load ptr, ptr %5, align 8
  %23 = getelementptr inbounds i8, ptr %22, i64 80
  %24 = load ptr, ptr %23, align 8
  %25 = load i8, ptr %9, align 8
  %26 = and i8 %25, 1
  %.not3 = icmp eq i8 %26, 0
  tail call void @_ZN7QAction10setEnabledEb(ptr noundef nonnull align 8 dereferenceable(16) %24, i1 noundef zeroext %.not3)
  %27 = load ptr, ptr %5, align 8
  %28 = getelementptr inbounds i8, ptr %27, i64 88
  %29 = load ptr, ptr %28, align 8
  %30 = load i8, ptr %9, align 8
  %31 = and i8 %30, 1
  %.not4 = icmp eq i8 %31, 0
  tail call void @_ZN7QAction10setEnabledEb(ptr noundef nonnull align 8 dereferenceable(16) %29, i1 noundef zeroext %.not4)
  %32 = getelementptr inbounds i8, ptr %0, i64 288
  %33 = load ptr, ptr %5, align 8
  %34 = getelementptr inbounds i8, ptr %33, i64 144
  %35 = load ptr, ptr %34, align 8
  %36 = tail call noundef ptr @_ZNK19QAbstractScrollArea8viewportEv(ptr noundef nonnull align 8 dereferenceable(40) %35)
  %37 = call i64 @_ZNK7QWidget11mapToGlobalERK6QPoint(ptr noundef nonnull align 8 dereferenceable(40) %36, ptr noundef nonnull align 4 dereferenceable(8) %3)
  store i64 %37, ptr %4, align 8
  call void @_ZN5QMenu5popupERK6QPointP7QAction(ptr noundef nonnull align 8 dereferenceable(40) %32, ptr noundef nonnull align 4 dereferenceable(8) %4, ptr noundef null)
  ret void
}